; Function Attrs: mustprogress nounwind uwtable
define void @_ZN32pxrInternal_v0_24__pxrReserved__9GfFrustumD2Ev(ptr nocapture noundef nonnull readonly align 8 dereferenceable(128) %0) unnamed_addr #4 align 2 {
  %2 = getelementptr inbounds nuw i8, ptr %0, i64 120
  %3 = load atomic i64, ptr %2 monotonic, align 8
  %4 = icmp eq i64 %3, 0
  br i1 %4, label %6, label %5

5:                                                ; preds = %1
  %.0.i = inttoptr i64 %3 to ptr
  tail call void @_ZdlPvm(ptr noundef nonnull %.0.i, i64 noundef 192) #25
  br label %6

6:                                                ; preds = %5, %1
  ret void
}